; Function Attrs: nounwind uwtable
define internal fastcc noalias nonnull ptr @_init_l_Int_reduceBEq___regBuiltin_Int_reduceBEq_declare__1____x40_Lean_Meta_Tactic_Simp_BuiltinSimprocs_Int___hyg_2108____closed__1() unnamed_addr #1 {
  %1 = load ptr, ptr @l___private_Lean_Meta_Tactic_Simp_BuiltinSimprocs_Int_0____regBuiltin_Int_reduceBEq_declare__123____x40_Lean_Meta_Tactic_Simp_BuiltinSimprocs_Int___hyg_2106____closed__6, align 8, !tbaa !11
  tail call void @lean_inc_heartbeat() #5
  %2 = tail call noalias ptr @mi_malloc_small(i64 noundef 16) #5
  %3 = icmp eq ptr %2, null
  br i1 %3, label %4, label %lean_alloc_ctor.exit

4:                                                ; preds = %0
  tail call void @lean_internal_panic_out_of_memory() #6
  unreachable

lean_alloc_ctor.exit:                             ; preds = %0
  %5 = getelementptr inbounds nuw i8, ptr %2, i64 4
  store i32 1, ptr %2, align 4, !tbaa !6
  store i32 16842768, ptr %5, align 4
  %6 = getelementptr inbounds nuw i8, ptr %2, i64 8
  store ptr %1, ptr %6, align 8, !tbaa !11
  ret ptr %2
}